target datalayout = "e-m:e-p270:32:32-p271:32:32-p272:64:64-i64:64-i128:128-f80:128-n8:16:32:64-S128"
target triple = "x86_64-unknown-linux-gnu"

%"class.hermes::Register" = type { i32 }
%"class.hermes::RegisterFile" = type { %"class.llvh::BitVector" }
%"class.llvh::BitVector" = type <{ %"class.llvh::MutableArrayRef", i32, [4 x i8] }>
%"class.llvh::MutableArrayRef" = type { %"class.llvh::ArrayRef" }
%"class.llvh::ArrayRef" = type { ptr, i64 }

; Function Attrs: mustprogress nounwind uwtable
define linkonce_odr hidden noundef ptr @_ZNK4llvh8ArrayRefImE4dataEv(ptr noundef nonnull align 8 dereferenceable(16) %this) #0 comdat align 2 {
entry:
  %this.addr = alloca ptr, align 8
  store ptr %this, ptr %this.addr, align 8
  %this1 = load ptr, ptr %this.addr, align 8
  %Data = getelementptr inbounds %"class.llvh::ArrayRef", ptr %this1, i32 0, i32 0
  %0 = load ptr, ptr %Data, align 8
  ret ptr %0
}

; Function Attrs: mustprogress nounwind uwtable
define linkonce_odr hidden noundef i64 @_ZN4llvh6detail20TrailingZerosCounterImLm8EE5countEmNS_12ZeroBehaviorE(i64 noundef %Val, i32 noundef %ZB) #0 comdat align 2 {
entry:
  %retval = alloca i64, align 8
  %Val.addr = alloca i64, align 8
  %ZB.addr = alloca i32, align 4
  store i64 %Val, ptr %Val.addr, align 8
  store i32 %ZB, ptr %ZB.addr, align 4
  %0 = load i32, ptr %ZB.addr, align 4
  %cmp = icmp ne i32 %0, 0
  br i1 %cmp, label %land.lhs.true, label %if.end

land.lhs.true:                                    ; preds = %entry
  %1 = load i64, ptr %Val.addr, align 8
  %cmp1 = icmp eq i64 %1, 0
  br i1 %cmp1, label %if.then, label %if.end

if.then:                                          ; preds = %land.lhs.true
  store i64 64, ptr %retval, align 8
  br label %return

if.end:                                           ; preds = %land.lhs.true, %entry
  %2 = load i64, ptr %Val.addr, align 8
  %3 = call i64 @llvm.cttz.i64(i64 %2, i1 true)
  %cast = trunc i64 %3 to i32
  %conv = sext i32 %cast to i64
  store i64 %conv, ptr %retval, align 8
  br label %return

return:                                           ; preds = %if.end, %if.then
  %4 = load i64, ptr %retval, align 8
  ret i64 %4
}

; Function Attrs: mustprogress nounwind uwtable
define linkonce_odr hidden noundef i64 @_ZN4llvh15maskLeadingOnesImEET_j(i32 noundef %N) #0 comdat {
entry:
  %N.addr = alloca i32, align 4
  store i32 %N, ptr %N.addr, align 4
  %0 = load i32, ptr %N.addr, align 4
  %conv = zext i32 %0 to i64
  %sub = sub i64 64, %conv
  %conv1 = trunc i64 %sub to i32
  %call = call noundef i64 @_ZN4llvh16maskTrailingOnesImEET_j(i32 noundef %conv1)
  %not = xor i64 %call, -1
  ret i64 %not
}

; Function Attrs: mustprogress nounwind uwtable
define linkonce_odr hidden noundef ptr @_ZNK4llvh15MutableArrayRefImE4dataEv(ptr noundef nonnull align 8 dereferenceable(16) %this) #0 comdat align 2 {
entry:
  %this.addr = alloca ptr, align 8
  store ptr %this, ptr %this.addr, align 8
  %this1 = load ptr, ptr %this.addr, align 8
  %call = call noundef ptr @_ZNK4llvh8ArrayRefImE4dataEv(ptr noundef nonnull align 8 dereferenceable(16) %this1)
  ret ptr %call
}

; Function Attrs: mustprogress nounwind uwtable
define linkonce_odr hidden noundef i64 @_ZN4llvh18countTrailingZerosImEEmT_NS_12ZeroBehaviorE(i64 noundef %Val, i32 noundef %ZB) #0 comdat {
entry:
  %Val.addr = alloca i64, align 8
  %ZB.addr = alloca i32, align 4
  store i64 %Val, ptr %Val.addr, align 8
  store i32 %ZB, ptr %ZB.addr, align 4
  %0 = load i64, ptr %Val.addr, align 8
  %1 = load i32, ptr %ZB.addr, align 4
  %call = call noundef i64 @_ZN4llvh6detail20TrailingZerosCounterImLm8EE5countEmNS_12ZeroBehaviorE(i64 noundef %0, i32 noundef %1)
  ret i64 %call
}

; Function Attrs: mustprogress nounwind uwtable
define linkonce_odr hidden noundef i64 @_ZN4llvh16maskTrailingOnesImEET_j(i32 noundef %N) #0 comdat {
entry:
  %N.addr = alloca i32, align 4
  %Bits = alloca i32, align 4
  store i32 %N, ptr %N.addr, align 4
  store i32 64, ptr %Bits, align 4
  %0 = load i32, ptr %N.addr, align 4
  %cmp = icmp eq i32 %0, 0
  br i1 %cmp, label %cond.true, label %cond.false

cond.true:                                        ; preds = %entry
  br label %cond.end

cond.false:                                       ; preds = %entry
  %1 = load i32, ptr %N.addr, align 4
  %sub = sub i32 64, %1
  %sh_prom = zext i32 %sub to i64
  %shr = lshr i64 -1, %sh_prom
  br label %cond.end

cond.end:                                         ; preds = %cond.false, %cond.true
  %cond = phi i64 [ 0, %cond.true ], [ %shr, %cond.false ]
  ret i64 %cond
}

; Function Attrs: mustprogress nounwind uwtable
define linkonce_odr hidden noundef i64 @_ZN4llvh17maskTrailingZerosImEET_j(i32 noundef %N) #0 comdat {
entry:
  %N.addr = alloca i32, align 4
  store i32 %N, ptr %N.addr, align 4
  %0 = load i32, ptr %N.addr, align 4
  %conv = zext i32 %0 to i64
  %sub = sub i64 64, %conv
  %conv1 = trunc i64 %sub to i32
  %call = call noundef i64 @_ZN4llvh15maskLeadingOnesImEET_j(i32 noundef %conv1)
  ret i64 %call
}

; Function Attrs: mustprogress nounwind uwtable
define linkonce_odr hidden noundef i32 @_ZNK4llvh9BitVector11NumBitWordsEj(ptr noundef nonnull align 8 dereferenceable(20) %this, i32 noundef %S) #0 comdat align 2 {
entry:
  %this.addr = alloca ptr, align 8
  %S.addr = alloca i32, align 4
  store ptr %this, ptr %this.addr, align 8
  store i32 %S, ptr %S.addr, align 4
  %0 = load i32, ptr %S.addr, align 4
  %add = add i32 %0, 64
  %sub = sub i32 %add, 1
  %div = udiv i32 %sub, 64
  ret i32 %div
}

; Function Attrs: mustprogress nounwind uwtable
define linkonce_odr hidden noundef nonnull align 8 dereferenceable(8) ptr @_ZNK4llvh15MutableArrayRefImEixEm(ptr noundef nonnull align 8 dereferenceable(16) %this, i64 noundef %Index) #0 comdat align 2 {
entry:
  %this.addr = alloca ptr, align 8
  %Index.addr = alloca i64, align 8
  store ptr %this, ptr %this.addr, align 8
  store i64 %Index, ptr %Index.addr, align 8
  %this1 = load ptr, ptr %this.addr, align 8
  %call = call noundef ptr @_ZNK4llvh15MutableArrayRefImE4dataEv(ptr noundef nonnull align 8 dereferenceable(16) %this1)
  %0 = load i64, ptr %Index.addr, align 8
  %arrayidx = getelementptr inbounds i64, ptr %call, i64 %0
  ret ptr %arrayidx
}

; Function Attrs: mustprogress nounwind uwtable
define linkonce_odr hidden noundef i32 @_ZNK4llvh9BitVector13find_first_inEjj(ptr noundef nonnull align 8 dereferenceable(20) %this, i32 noundef %Begin, i32 noundef %End) #0 comdat align 2 {
entry:
  %retval = alloca i32, align 4
  %this.addr = alloca ptr, align 8
  %Begin.addr = alloca i32, align 4
  %End.addr = alloca i32, align 4
  %FirstWord = alloca i32, align 4
  %LastWord = alloca i32, align 4
  %i = alloca i32, align 4
  %Copy = alloca i64, align 8
  %FirstBit = alloca i32, align 4
  %LastBit = alloca i32, align 4
  store ptr %this, ptr %this.addr, align 8
  store i32 %Begin, ptr %Begin.addr, align 4
  store i32 %End, ptr %End.addr, align 4
  %this1 = load ptr, ptr %this.addr, align 8
  %0 = load i32, ptr %Begin.addr, align 4
  %1 = load i32, ptr %End.addr, align 4
  %cmp = icmp eq i32 %0, %1
  br i1 %cmp, label %if.then, label %if.end

if.then:                                          ; preds = %entry
  store i32 -1, ptr %retval, align 4
  br label %return

if.end:                                           ; preds = %entry
  %2 = load i32, ptr %Begin.addr, align 4
  %div = udiv i32 %2, 64
  store i32 %div, ptr %FirstWord, align 4
  %3 = load i32, ptr %End.addr, align 4
  %sub = sub i32 %3, 1
  %div2 = udiv i32 %sub, 64
  store i32 %div2, ptr %LastWord, align 4
  %4 = load i32, ptr %FirstWord, align 4
  store i32 %4, ptr %i, align 4
  br label %for.cond

for.cond:                                         ; preds = %for.inc, %if.end
  %5 = load i32, ptr %i, align 4
  %6 = load i32, ptr %LastWord, align 4
  %cmp3 = icmp ule i32 %5, %6
  br i1 %cmp3, label %for.body, label %for.end

for.body:                                         ; preds = %for.cond
  %Bits = getelementptr inbounds %"class.llvh::BitVector", ptr %this1, i32 0, i32 0
  %7 = load i32, ptr %i, align 4
  %conv = zext i32 %7 to i64
  %call = call noundef nonnull align 8 dereferenceable(8) ptr @_ZNK4llvh15MutableArrayRefImEixEm(ptr noundef nonnull align 8 dereferenceable(16) %Bits, i64 noundef %conv)
  %8 = load i64, ptr %call, align 8
  store i64 %8, ptr %Copy, align 8
  %9 = load i32, ptr %i, align 4
  %10 = load i32, ptr %FirstWord, align 4
  %cmp4 = icmp eq i32 %9, %10
  br i1 %cmp4, label %if.then5, label %if.end7

if.then5:                                         ; preds = %for.body
  %11 = load i32, ptr %Begin.addr, align 4
  %rem = urem i32 %11, 64
  store i32 %rem, ptr %FirstBit, align 4
  %12 = load i32, ptr %FirstBit, align 4
  %call6 = call noundef i64 @_ZN4llvh17maskTrailingZerosImEET_j(i32 noundef %12)
  %13 = load i64, ptr %Copy, align 8
  %and = and i64 %13, %call6
  store i64 %and, ptr %Copy, align 8
  br label %if.end7

if.end7:                                          ; preds = %if.then5, %for.body
  %14 = load i32, ptr %i, align 4
  %15 = load i32, ptr %LastWord, align 4
  %cmp8 = icmp eq i32 %14, %15
  br i1 %cmp8, label %if.then9, label %if.end14

if.then9:                                         ; preds = %if.end7
  %16 = load i32, ptr %End.addr, align 4
  %sub10 = sub i32 %16, 1
  %rem11 = urem i32 %sub10, 64
  store i32 %rem11, ptr %LastBit, align 4
  %17 = load i32, ptr %LastBit, align 4
  %add = add i32 %17, 1
  %call12 = call noundef i64 @_ZN4llvh16maskTrailingOnesImEET_j(i32 noundef %add)
  %18 = load i64, ptr %Copy, align 8
  %and13 = and i64 %18, %call12
  store i64 %and13, ptr %Copy, align 8
  br label %if.end14

if.end14:                                         ; preds = %if.then9, %if.end7
  %19 = load i64, ptr %Copy, align 8
  %cmp15 = icmp ne i64 %19, 0
  br i1 %cmp15, label %if.then16, label %if.end21

if.then16:                                        ; preds = %if.end14
  %20 = load i32, ptr %i, align 4
  %mul = mul i32 %20, 64
  %conv17 = zext i32 %mul to i64
  %21 = load i64, ptr %Copy, align 8
  %call18 = call noundef i64 @_ZN4llvh18countTrailingZerosImEEmT_NS_12ZeroBehaviorE(i64 noundef %21, i32 noundef 2)
  %add19 = add i64 %conv17, %call18
  %conv20 = trunc i64 %add19 to i32
  store i32 %conv20, ptr %retval, align 4
  br label %return

if.end21:                                         ; preds = %if.end14
  br label %for.inc

for.inc:                                          ; preds = %if.end21
  %22 = load i32, ptr %i, align 4
  %inc = add i32 %22, 1
  store i32 %inc, ptr %i, align 4
  br label %for.cond, !llvm.loop !33

for.end:                                          ; preds = %for.cond
  store i32 -1, ptr %retval, align 4
  br label %return

return:                                           ; preds = %for.end, %if.then16, %if.then
  %23 = load i32, ptr %retval, align 4
  ret i32 %23
}

; Function Attrs: mustprogress nounwind uwtable
define linkonce_odr hidden noundef zeroext i1 @_ZNK4llvh9BitVector3anyEv(ptr noundef nonnull align 8 dereferenceable(20) %this) #0 comdat align 2 {
entry:
  %retval = alloca i1, align 1
  %this.addr = alloca ptr, align 8
  %i = alloca i32, align 4
  store ptr %this, ptr %this.addr, align 8
  %this1 = load ptr, ptr %this.addr, align 8
  store i32 0, ptr %i, align 4
  br label %for.cond

for.cond:                                         ; preds = %for.inc, %entry
  %0 = load i32, ptr %i, align 4
  %call = call noundef i32 @_ZNK4llvh9BitVector4sizeEv(ptr noundef nonnull align 8 dereferenceable(20) %this1)
  %call2 = call noundef i32 @_ZNK4llvh9BitVector11NumBitWordsEj(ptr noundef nonnull align 8 dereferenceable(20) %this1, i32 noundef %call)
  %cmp = icmp ult i32 %0, %call2
  br i1 %cmp, label %for.body, label %for.end

for.body:                                         ; preds = %for.cond
  %Bits = getelementptr inbounds %"class.llvh::BitVector", ptr %this1, i32 0, i32 0
  %1 = load i32, ptr %i, align 4
  %conv = zext i32 %1 to i64
  %call3 = call noundef nonnull align 8 dereferenceable(8) ptr @_ZNK4llvh15MutableArrayRefImEixEm(ptr noundef nonnull align 8 dereferenceable(16) %Bits, i64 noundef %conv)
  %2 = load i64, ptr %call3, align 8
  %cmp4 = icmp ne i64 %2, 0
  br i1 %cmp4, label %if.then, label %if.end

if.then:                                          ; preds = %for.body
  store i1 true, ptr %retval, align 1
  br label %return

if.end:                                           ; preds = %for.body
  br label %for.inc

for.inc:                                          ; preds = %if.end
  %3 = load i32, ptr %i, align 4
  %inc = add i32 %3, 1
  store i32 %inc, ptr %i, align 4
  br label %for.cond, !llvm.loop !32

for.end:                                          ; preds = %for.cond
  store i1 false, ptr %retval, align 1
  br label %return

return:                                           ; preds = %for.end, %if.then
  %4 = load i1, ptr %retval, align 1
  ret i1 %4
}

; Function Attrs: mustprogress nounwind uwtable
define linkonce_odr hidden noundef nonnull align 8 dereferenceable(20) ptr @_ZN4llvh9BitVector5resetEj(ptr noundef nonnull align 8 dereferenceable(20) %this, i32 noundef %Idx) #0 comdat align 2 {
entry:
  %this.addr = alloca ptr, align 8
  %Idx.addr = alloca i32, align 4
  store ptr %this, ptr %this.addr, align 8
  store i32 %Idx, ptr %Idx.addr, align 4
  %this1 = load ptr, ptr %this.addr, align 8
  %0 = load i32, ptr %Idx.addr, align 4
  %rem = urem i32 %0, 64
  %sh_prom = zext i32 %rem to i64
  %shl = shl i64 1, %sh_prom
  %not = xor i64 %shl, -1
  %Bits = getelementptr inbounds %"class.llvh::BitVector", ptr %this1, i32 0, i32 0
  %1 = load i32, ptr %Idx.addr, align 4
  %div = udiv i32 %1, 64
  %conv = zext i32 %div to i64
  %call = call noundef nonnull align 8 dereferenceable(8) ptr @_ZNK4llvh15MutableArrayRefImEixEm(ptr noundef nonnull align 8 dereferenceable(16) %Bits, i64 noundef %conv)
  %2 = load i64, ptr %call, align 8
  %and = and i64 %2, %not
  store i64 %and, ptr %call, align 8
  ret ptr %this1
}

; Function Attrs: mustprogress nounwind uwtable
define linkonce_odr hidden noundef i32 @_ZNK4llvh9BitVector10find_firstEv(ptr noundef nonnull align 8 dereferenceable(20) %this) #0 comdat align 2 {
entry:
  %this.addr = alloca ptr, align 8
  store ptr %this, ptr %this.addr, align 8
  %this1 = load ptr, ptr %this.addr, align 8
  %Size = getelementptr inbounds %"class.llvh::BitVector", ptr %this1, i32 0, i32 1
  %0 = load i32, ptr %Size, align 8
  %call = call noundef i32 @_ZNK4llvh9BitVector13find_first_inEjj(ptr noundef nonnull align 8 dereferenceable(20) %this1, i32 noundef 0, i32 noundef %0)
  ret i32 %call
}

; Function Attrs: mustprogress nounwind uwtable
define linkonce_odr hidden void @_ZN6hermes8RegisterC2Ej(ptr noundef nonnull align 4 dereferenceable(4) %this, i32 noundef %val) unnamed_addr #0 comdat align 2 {
entry:
  %this.addr = alloca ptr, align 8
  %val.addr = alloca i32, align 4
  store ptr %this, ptr %this.addr, align 8
  store i32 %val, ptr %val.addr, align 4
  %this1 = load ptr, ptr %this.addr, align 8
  %value = getelementptr inbounds %"class.hermes::Register", ptr %this1, i32 0, i32 0
  %0 = load i32, ptr %val.addr, align 4
  store i32 %0, ptr %value, align 4
  ret void
}

; Function Attrs: mustprogress nounwind uwtable
define linkonce_odr hidden noundef i32 @_ZNK4llvh9BitVector4sizeEv(ptr noundef nonnull align 8 dereferenceable(20) %this) #0 comdat align 2 {
entry:
  %this.addr = alloca ptr, align 8
  store ptr %this, ptr %this.addr, align 8
  %this1 = load ptr, ptr %this.addr, align 8
  %Size = getelementptr inbounds %"class.llvh::BitVector", ptr %this1, i32 0, i32 1
  %0 = load i32, ptr %Size, align 8
  ret i32 %0
}

; Function Attrs: mustprogress nounwind uwtable
define linkonce_odr hidden noundef zeroext i1 @_ZNK4llvh9BitVector4noneEv(ptr noundef nonnull align 8 dereferenceable(20) %this) #0 comdat align 2 {
entry:
  %this.addr = alloca ptr, align 8
  store ptr %this, ptr %this.addr, align 8
  %this1 = load ptr, ptr %this.addr, align 8
  %call = call noundef zeroext i1 @_ZNK4llvh9BitVector3anyEv(ptr noundef nonnull align 8 dereferenceable(20) %this1)
  %lnot = xor i1 %call, true
  ret i1 %lnot
}

; Function Attrs: mustprogress nounwind uwtable
define hidden i32 @_ZN6hermes12RegisterFile16allocateRegisterEv(ptr noundef nonnull align 8 dereferenceable(24) %this) #0 align 2 {
entry:
  %retval = alloca %"class.hermes::Register", align 4
  %this.addr = alloca ptr, align 8
  %numRegs = alloca i32, align 4
  %i = alloca i32, align 4
  store ptr %this, ptr %this.addr, align 8
  %this1 = load ptr, ptr %this.addr, align 8
  %registers = getelementptr inbounds %"class.hermes::RegisterFile", ptr %this1, i32 0, i32 0
  %call = call noundef zeroext i1 @_ZNK4llvh9BitVector4noneEv(ptr noundef nonnull align 8 dereferenceable(20) %registers)
  br i1 %call, label %if.then, label %if.end

if.then:                                          ; preds = %entry
  %registers2 = getelementptr inbounds %"class.hermes::RegisterFile", ptr %this1, i32 0, i32 0
  %call3 = call noundef i32 @_ZNK4llvh9BitVector4sizeEv(ptr noundef nonnull align 8 dereferenceable(20) %registers2)
  store i32 %call3, ptr %numRegs, align 4
  %registers4 = getelementptr inbounds %"class.hermes::RegisterFile", ptr %this1, i32 0, i32 0
  %0 = load i32, ptr %numRegs, align 4
  %add = add i32 %0, 1
  call void @_ZN4llvh9BitVector6resizeEjb(ptr noundef nonnull align 8 dereferenceable(20) %registers4, i32 noundef %add, i1 noundef zeroext false)
  %1 = load i32, ptr %numRegs, align 4
  call void @_ZN6hermes8RegisterC2Ej(ptr noundef nonnull align 4 dereferenceable(4) %retval, i32 noundef %1)
  br label %do.body

do.body:                                          ; preds = %if.then
  br label %do.end

do.end:                                           ; preds = %do.body
  br label %return

if.end:                                           ; preds = %entry
  %registers5 = getelementptr inbounds %"class.hermes::RegisterFile", ptr %this1, i32 0, i32 0
  %call6 = call noundef i32 @_ZNK4llvh9BitVector10find_firstEv(ptr noundef nonnull align 8 dereferenceable(20) %registers5)
  store i32 %call6, ptr %i, align 4
  %2 = load i32, ptr %i, align 4
  call void @_ZN6hermes8RegisterC2Ej(ptr noundef nonnull align 4 dereferenceable(4) %retval, i32 noundef %2)
  br label %do.body7

do.body7:                                         ; preds = %if.end
  br label %do.end8

do.end8:                                          ; preds = %do.body7
  %registers9 = getelementptr inbounds %"class.hermes::RegisterFile", ptr %this1, i32 0, i32 0
  %3 = load i32, ptr %i, align 4
  %call10 = call noundef nonnull align 8 dereferenceable(20) ptr @_ZN4llvh9BitVector5resetEj(ptr noundef nonnull align 8 dereferenceable(20) %registers9, i32 noundef %3)
  br label %return

return:                                           ; preds = %do.end8, %do.end
  %coerce.dive = getelementptr inbounds %"class.hermes::Register", ptr %retval, i32 0, i32 0
  %4 = load i32, ptr %coerce.dive, align 4
  ret i32 %4
}