; Function Attrs: mustprogress nounwind uwtable
define hidden i32 @_ZN6hermes12RegisterFile16allocateRegisterEv(ptr noundef nonnull align 8 dereferenceable(24) %this) local_unnamed_addr #0 align 2 {
entry:
  %Size.i.i.i = getelementptr inbounds i8, ptr %this, i64 16
  %0 = load i32, ptr %Size.i.i.i, align 8
  %sub.i.i.i = add i32 %0, 63
  %cmp3.i.i = icmp ugt i32 %sub.i.i.i, 63
  br i1 %cmp3.i.i, label %for.body.lr.ph.i.i, label %if.then

for.body.lr.ph.i.i:                               ; preds = %entry
  %div1.i.i.i = lshr i32 %sub.i.i.i, 6
  %1 = load ptr, ptr %this, align 8
  %2 = zext nneg i32 %div1.i.i.i to i64
  %3 = load i64, ptr %1, align 8
  %cmp4.not.i1.i = icmp eq i64 %3, 0
  br i1 %cmp4.not.i1.i, label %for.cond.i.i, label %if.end.i.i

for.cond.i.i:                                     ; preds = %for.body.lr.ph.i.i, %for.body.i.i
  %indvars.iv.i2.i = phi i64 [ %indvars.iv.next.i.i, %for.body.i.i ], [ 0, %for.body.lr.ph.i.i ]
  %indvars.iv.next.i.i = add nuw nsw i64 %indvars.iv.i2.i, 1
  %exitcond.not.i.i = icmp eq i64 %indvars.iv.next.i.i, %2
  br i1 %exitcond.not.i.i, label %if.then, label %for.body.i.i, !llvm.loop !9

for.body.i.i:                                     ; preds = %for.cond.i.i
  %arrayidx.i.i.i = getelementptr inbounds i64, ptr %1, i64 %indvars.iv.next.i.i
  %4 = load i64, ptr %arrayidx.i.i.i, align 8
  %cmp4.not.i.i = icmp eq i64 %4, 0
  br i1 %cmp4.not.i.i, label %for.cond.i.i, label %_ZNK4llvh9BitVector4noneEv.exit, !llvm.loop !9

_ZNK4llvh9BitVector4noneEv.exit:                  ; preds = %for.body.i.i
  %cmp.i.le.i.not = icmp ult i64 %indvars.iv.next.i.i, %2
  br i1 %cmp.i.le.i.not, label %if.end, label %if.then

if.then:                                          ; preds = %for.cond.i.i, %entry, %_ZNK4llvh9BitVector4noneEv.exit
  %add = add i32 %0, 1
  tail call void @_ZN4llvh9BitVector6resizeEjb(ptr noundef nonnull align 8 dereferenceable(20) %this, i32 noundef %add, i1 noundef zeroext false)
  br label %return

if.end:                                           ; preds = %_ZNK4llvh9BitVector4noneEv.exit
  %cmp.i.i = icmp eq i32 %0, 0
  br i1 %cmp.i.i, label %_ZNK4llvh9BitVector10find_firstEv.exit, label %if.end.i.i

if.end.i.i:                                       ; preds = %for.body.lr.ph.i.i, %if.end
  %sub.i.i = add i32 %0, -1
  %div216.i.i = lshr i32 %sub.i.i, 6
  %rem11.i.i = and i32 %sub.i.i, 63
  %sub.i17.i.i = xor i32 %rem11.i.i, 63
  %sh_prom.i.i.i = zext nneg i32 %sub.i17.i.i to i64
  %shr.i.i.i = lshr i64 -1, %sh_prom.i.i.i
  %5 = zext nneg i32 %div216.i.i to i64
  %6 = add nuw nsw i32 %div216.i.i, 1
  %wide.trip.count.i.i = zext nneg i32 %6 to i64
  br label %for.body.i.i4

for.body.i.i4:                                    ; preds = %for.inc.i.i, %if.end.i.i
  %indvars.iv.i.i = phi i64 [ 0, %if.end.i.i ], [ %indvars.iv.next.i.i6, %for.inc.i.i ]
  %arrayidx.i.i.i5 = getelementptr inbounds i64, ptr %1, i64 %indvars.iv.i.i
  %7 = load i64, ptr %arrayidx.i.i.i5, align 8
  %cmp8.i.i = icmp eq i64 %indvars.iv.i.i, %5
  %and13.i.i = select i1 %cmp8.i.i, i64 %shr.i.i.i, i64 -1
  %Copy.1.i.i = and i64 %and13.i.i, %7
  %cmp15.not.i.i = icmp eq i64 %Copy.1.i.i, 0
  br i1 %cmp15.not.i.i, label %for.inc.i.i, label %if.then16.i.i

if.then16.i.i:                                    ; preds = %for.body.i.i4
  %8 = trunc i64 %indvars.iv.i.i to i32
  %mul.i.i = shl nuw i32 %8, 6
  %9 = tail call i64 @llvm.cttz.i64(i64 %Copy.1.i.i, i1 true), !range !10
  %10 = trunc i64 %9 to i32
  %conv20.i.i = or disjoint i32 %mul.i.i, %10
  br label %_ZNK4llvh9BitVector10find_firstEv.exit

for.inc.i.i:                                      ; preds = %for.body.i.i4
  %indvars.iv.next.i.i6 = add nuw nsw i64 %indvars.iv.i.i, 1
  %exitcond.not.i.i7 = icmp eq i64 %indvars.iv.next.i.i6, %wide.trip.count.i.i
  br i1 %exitcond.not.i.i7, label %_ZNK4llvh9BitVector10find_firstEv.exit, label %for.body.i.i4, !llvm.loop !11

_ZNK4llvh9BitVector10find_firstEv.exit:           ; preds = %for.inc.i.i, %if.end, %if.then16.i.i
  %retval.0.i.i = phi i32 [ %conv20.i.i, %if.then16.i.i ], [ -1, %if.end ], [ -1, %for.inc.i.i ]
  %rem.i = and i32 %retval.0.i.i, 63
  %sh_prom.i = zext nneg i32 %rem.i to i64
  %shl.i = shl nuw i64 1, %sh_prom.i
  %not.i = xor i64 %shl.i, -1
  %div2.i = lshr i32 %retval.0.i.i, 6
  %conv.i = zext nneg i32 %div2.i to i64
  %arrayidx.i.i = getelementptr inbounds i64, ptr %1, i64 %conv.i
  %11 = load i64, ptr %arrayidx.i.i, align 8
  %and.i = and i64 %11, %not.i
  store i64 %and.i, ptr %arrayidx.i.i, align 8
  br label %return

return:                                           ; preds = %_ZNK4llvh9BitVector10find_firstEv.exit, %if.then
  %retval.sroa.0.0 = phi i32 [ %0, %if.then ], [ %retval.0.i.i, %_ZNK4llvh9BitVector10find_firstEv.exit ]
  ret i32 %retval.sroa.0.0
}